Certificate Request:
    Data:
        Version: 1 (0x0)
        Subject: CN = ECC-EE, OU = PPKI Playground, OU = Corporate Technology, OU = For internal test purposes only, O = Siemens, C = DE
        Subject Public Key Info:
            Public Key Algorithm: id-ecPublicKey
                Public-Key: (256 bit)
                pub:
                    04:95:1e:fc:17:10:07:56:85:22:a7:82:be:f5:50:
                    fe:07:9b:48:27:35:e0:76:7e:11:f5:7c:4f:1a:ef:
                    ad:68:00:1a:b1:51:4b:e6:19:79:31:d1:05:56:ac:
                    2a:74:d5:20:f3:31:2c:52:d7:59:37:72:e8:7d:c4:
                    dd:47:15:b9:d9
                ASN1 OID: prime256v1
                NIST CURVE: P-256
        Attributes:
            a0:00
    Signature Algorithm: sha256WithRSAEncryption
         31:de:e7:77:8d:4d:65:eb:35:28:d9:6e:b7:42:35:87:9c:2f:
         25:3e:60:b1:81:c8:38:11:bd:23:25:b6:36:e2:40:fe:29:d3:
         4b:3c:bc:0c:7d:cb:dc:0a:d0:8f:d2:05:ca:ea:45:a9:fe:69:
         09:82:47:2c:cd:c1:2a:9c:0b:da:e7:fb:35:d4:05:a1:c3:3b:
         64:20:b7:1f:6f:e9:96:72:e5:32:91:af:55:8e:48:7c:b5:a0:
         05:e8:c1:e0:f3:9a:1a:f2:ca:e7:5f:2f:6a:1e:a7:2d:96:b9:
         93:15:41:cc:48:a4:14:58:2e:a5:3e:ed:6a:ff:e3:5b:83:03:
         49:86:2f:52:a5:f9:70:72:0c:74:78:57:45:7e:6b:cc:ee:1c:
         dd:c7:1d:05:cb:6a:76:f5:76:21:1f:83:7b:27:de:6a:75:16:
         fc:4e:d3:2f:bd:82:aa:13:88:64:62:49:89:9f:4f:41:3f:ee:
         59:54:64:41:eb:ae:6a:58:77:05:55:89:5f:24:48:30:66:5e:
         91:1e:27:d1:09:e3:e6:1b:61:6f:c2:04:f2:d7:81:fc:cf:cf:
         59:12:b5:d1:48:45:1e:d5:da:f6:e1:d9:b4:bd:50:90:b2:34:
         78:bc:f9:88:7e:5e:fa:54:86:ef:42:49:83:64:97:2d:cc:fe:
         0f:88:76:9e
-----BEGIN CERTIFICATE REQUEST-----
MIICDTCB9gIBADCBkzEPMA0GA1UEAwwGRUNDLUVFMRgwFgYDVQQLDA9QUEtJIFBs
YXlncm91bmQxHTAbBgNVBAsMFENvcnBvcmF0ZSBUZWNobm9sb2d5MSgwJgYDVQQL
DB9Gb3IgaW50ZXJuYWwgdGVzdCBwdXJwb3NlcyBvbmx5MRAwDgYDVQQKDAdTaWVt
ZW5zMQswCQYDVQQGEwJERTBZMBMGByqGSM49AgEGCCqGSM49AwEHA0IABJUe/BcQ
B1aFIqeCvvVQ/gebSCc14HZ+EfV8TxrvrWgAGrFRS+YZeTHRBVasKnTVIPMxLFLX
WTdy6H3E3UcVudmgADANBgkqhkiG9w0BAQsFAAOCAQEAMd7nd41NZes1KNlut0I1
h5wvJT5gsYHIOBG9IyW2NuJA/inTSzy8DH3L3ArQj9IFyupFqf5pCYJHLM3BKpwL
2uf7NdQFocM7ZCC3H2/plnLlMpGvVY5IfLWgBejB4POaGvLK518vah6nLZa5kxVB
zEikFFgupT7tav/jW4MDSYYvUqX5cHIMdHhXRX5rzO4c3ccdBctqdvV2IR+Deyfe
anUW/E7TL72CqhOIZGJJiZ9PQT/uWVRkQeuualh3BVWJXyRIMGZekR4n0Qnj5hth
b8IE8teB/M/PWRK10UhFHtXa9uHZtL1QkLI0eLz5iH5e+lSG70JJg2SXLcz+D4h2
ng==
-----END CERTIFICATE REQUEST-----
